ARM GAS  C:\Users\24105\AppData\Local\Temp\ccqzcTtG.s 			page 1


   1              		.cpu cortex-m3
   2              		.arch armv7-m
   3              		.fpu softvfp
   4              		.eabi_attribute 20, 1
   5              		.eabi_attribute 21, 1
   6              		.eabi_attribute 23, 3
   7              		.eabi_attribute 24, 1
   8              		.eabi_attribute 25, 1
   9              		.eabi_attribute 26, 1
  10              		.eabi_attribute 30, 1
  11              		.eabi_attribute 34, 1
  12              		.eabi_attribute 18, 4
  13              		.file	"sys.c"
  14              		.text
  15              	.Ltext0:
  16              		.cfi_sections	.debug_frame
  17              		.file 1 "./SYSTEM/sys/sys.c"
  18              		.section	.text.WFI_SET,"ax",%progbits
  19              		.align	1
  20              		.global	WFI_SET
  21              		.syntax unified
  22              		.thumb
  23              		.thumb_func
  25              	WFI_SET:
  26              	.LFB29:
   1:./SYSTEM/sys/sys.c **** /*
   2:./SYSTEM/sys/sys.c ****  * @Descripttion: 
   3:./SYSTEM/sys/sys.c ****  * @version: 
   4:./SYSTEM/sys/sys.c ****  * @Author: 王明红
   5:./SYSTEM/sys/sys.c ****  * @Date: 2024-08-24 23:29:04
   6:./SYSTEM/sys/sys.c ****  * @LastEditors: 王明红
   7:./SYSTEM/sys/sys.c ****  * @LastEditTime: 2024-08-26 10:36:25
   8:./SYSTEM/sys/sys.c ****  */
   9:./SYSTEM/sys/sys.c **** /*
  10:./SYSTEM/sys/sys.c ****  * @Descripttion: 
  11:./SYSTEM/sys/sys.c ****  * @version: 
  12:./SYSTEM/sys/sys.c ****  * @Author: 王明红
  13:./SYSTEM/sys/sys.c ****  * @Date: 2024-08-24 23:29:04
  14:./SYSTEM/sys/sys.c ****  * @LastEditors: 王明红
  15:./SYSTEM/sys/sys.c ****  * @LastEditTime: 2024-08-24 23:48:57
  16:./SYSTEM/sys/sys.c ****  */
  17:./SYSTEM/sys/sys.c **** #include "sys.h"
  18:./SYSTEM/sys/sys.c **** 
  19:./SYSTEM/sys/sys.c **** //********************************************************************************  
  20:./SYSTEM/sys/sys.c **** //THUMB指令不支持汇编内联
  21:./SYSTEM/sys/sys.c **** //采用如下方法实现执行汇编指令WFI  
  22:./SYSTEM/sys/sys.c **** void WFI_SET(void)
  23:./SYSTEM/sys/sys.c **** {
  27              		.loc 1 23 1 view -0
  28              		.cfi_startproc
  29              		@ args = 0, pretend = 0, frame = 0
  30              		@ frame_needed = 0, uses_anonymous_args = 0
  31              		@ link register save eliminated.
  24:./SYSTEM/sys/sys.c **** 	__ASM volatile("wfi");		  
  32              		.loc 1 24 2 view .LVU1
  33              		.syntax unified
  34              	@ 24 "./SYSTEM/sys/sys.c" 1
ARM GAS  C:\Users\24105\AppData\Local\Temp\ccqzcTtG.s 			page 2


  35 0000 30BF     		wfi
  36              	@ 0 "" 2
  25:./SYSTEM/sys/sys.c **** }
  37              		.loc 1 25 1 is_stmt 0 view .LVU2
  38              		.thumb
  39              		.syntax unified
  40 0002 7047     		bx	lr
  41              		.cfi_endproc
  42              	.LFE29:
  44              		.section	.text.INTX_DISABLE,"ax",%progbits
  45              		.align	1
  46              		.global	INTX_DISABLE
  47              		.syntax unified
  48              		.thumb
  49              		.thumb_func
  51              	INTX_DISABLE:
  52              	.LFB30:
  26:./SYSTEM/sys/sys.c **** //关闭所有中断
  27:./SYSTEM/sys/sys.c **** void INTX_DISABLE(void)
  28:./SYSTEM/sys/sys.c **** {		  
  53              		.loc 1 28 1 is_stmt 1 view -0
  54              		.cfi_startproc
  55              		@ args = 0, pretend = 0, frame = 0
  56              		@ frame_needed = 0, uses_anonymous_args = 0
  57              		@ link register save eliminated.
  29:./SYSTEM/sys/sys.c **** 	__ASM volatile("cpsid i");
  58              		.loc 1 29 2 view .LVU4
  59              		.syntax unified
  60              	@ 29 "./SYSTEM/sys/sys.c" 1
  61 0000 72B6     		cpsid i
  62              	@ 0 "" 2
  30:./SYSTEM/sys/sys.c **** }
  63              		.loc 1 30 1 is_stmt 0 view .LVU5
  64              		.thumb
  65              		.syntax unified
  66 0002 7047     		bx	lr
  67              		.cfi_endproc
  68              	.LFE30:
  70              		.section	.text.INTX_ENABLE,"ax",%progbits
  71              		.align	1
  72              		.global	INTX_ENABLE
  73              		.syntax unified
  74              		.thumb
  75              		.thumb_func
  77              	INTX_ENABLE:
  78              	.LFB31:
  31:./SYSTEM/sys/sys.c **** //开启所有中断
  32:./SYSTEM/sys/sys.c **** void INTX_ENABLE(void)
  33:./SYSTEM/sys/sys.c **** {
  79              		.loc 1 33 1 is_stmt 1 view -0
  80              		.cfi_startproc
  81              		@ args = 0, pretend = 0, frame = 0
  82              		@ frame_needed = 0, uses_anonymous_args = 0
  83              		@ link register save eliminated.
  34:./SYSTEM/sys/sys.c **** 	__ASM volatile("cpsie i");		  
  84              		.loc 1 34 2 view .LVU7
  85              		.syntax unified
ARM GAS  C:\Users\24105\AppData\Local\Temp\ccqzcTtG.s 			page 3


  86              	@ 34 "./SYSTEM/sys/sys.c" 1
  87 0000 62B6     		cpsie i
  88              	@ 0 "" 2
  35:./SYSTEM/sys/sys.c **** }
  89              		.loc 1 35 1 is_stmt 0 view .LVU8
  90              		.thumb
  91              		.syntax unified
  92 0002 7047     		bx	lr
  93              		.cfi_endproc
  94              	.LFE31:
  96              		.section	.text.MSR_MSP,"ax",%progbits
  97              		.align	1
  98              		.global	MSR_MSP
  99              		.syntax unified
 100              		.thumb
 101              		.thumb_func
 103              	MSR_MSP:
 104              	.LVL0:
 105              	.LFB32:
  36:./SYSTEM/sys/sys.c **** //设置栈顶地址
  37:./SYSTEM/sys/sys.c **** //addr:栈顶地址
  38:./SYSTEM/sys/sys.c **** void MSR_MSP(u32 addr) 
  39:./SYSTEM/sys/sys.c **** {
 106              		.loc 1 39 1 is_stmt 1 view -0
 107              		.cfi_startproc
 108              		@ args = 0, pretend = 0, frame = 0
 109              		@ frame_needed = 0, uses_anonymous_args = 0
 110              		@ link register save eliminated.
  40:./SYSTEM/sys/sys.c **** __ASM volatile("MSR MSP, r0");
 111              		.loc 1 40 1 view .LVU10
 112              		.syntax unified
 113              	@ 40 "./SYSTEM/sys/sys.c" 1
 114 0000 80F30888 		MSR MSP, r0
 115              	@ 0 "" 2
  41:./SYSTEM/sys/sys.c **** __ASM volatile("BX r14");
 116              		.loc 1 41 1 view .LVU11
 117              	@ 41 "./SYSTEM/sys/sys.c" 1
 118 0004 7047     		BX r14
 119              	@ 0 "" 2
  42:./SYSTEM/sys/sys.c **** }
 120              		.loc 1 42 1 is_stmt 0 view .LVU12
 121              		.thumb
 122              		.syntax unified
 123 0006 7047     		bx	lr
 124              		.cfi_endproc
 125              	.LFE32:
 127              		.text
 128              	.Letext0:
 129              		.file 2 "c:\\vscode_tool_chain\\gcc\\12.2 mpacbti-rel1\\arm-none-eabi\\include\\machine\\_default_
 130              		.file 3 "c:\\vscode_tool_chain\\gcc\\12.2 mpacbti-rel1\\arm-none-eabi\\include\\sys\\_stdint.h"
 131              		.file 4 "User/stm32f10x.h"
ARM GAS  C:\Users\24105\AppData\Local\Temp\ccqzcTtG.s 			page 4

